target datalayout = "e-m:e-p270:32:32-p271:32:32-p272:64:64-i64:64-i128:128-f80:128-n8:16:32:64-S128"
target triple = "x86_64-pc-linux-gnu"

%"union.icu_77::number::Precision::PrecisionUnion" = type { %"struct.icu_77::number::Precision::PrecisionUnion::IncrementSettings" }
%"struct.icu_77::number::Precision::PrecisionUnion::IncrementSettings" = type { i64, i16, i16 }
%"class.icu_77::number::Precision" = type <{ i32, [4 x i8], %"union.icu_77::number::Precision::PrecisionUnion", i32, [4 x i8] }>
%"struct.icu_77::number::Precision::PrecisionUnion::FractionSignificantSettings" = type { i16, i16, i16, i16, i32, i8 }

; Function Attrs: mustprogress nounwind uwtable
define linkonce_odr void @_ZN6icu_776number9PrecisionC2ERKNS1_13PrecisionTypeERKNS1_14PrecisionUnionE(ptr noundef nonnull align 8 dereferenceable(28) %0, ptr noundef nonnull align 4 dereferenceable(4) %1, ptr noundef nonnull align 8 dereferenceable(16) %2) unnamed_addr #0 comdat align 2 {
  %4 = alloca ptr, align 8
  %5 = alloca ptr, align 8
  %6 = alloca ptr, align 8
  store ptr %0, ptr %4, align 8, !tbaa !25
  store ptr %1, ptr %5, align 8, !tbaa !22
  store ptr %2, ptr %6, align 8, !tbaa !63
  %7 = load ptr, ptr %4, align 8
  %8 = getelementptr inbounds nuw %"class.icu_77::number::Precision", ptr %7, i32 0, i32 0
  %9 = load ptr, ptr %5, align 8, !tbaa !22
  %10 = load i32, ptr %9, align 4, !tbaa !52
  store i32 %10, ptr %8, align 8, !tbaa !65
  %11 = getelementptr inbounds nuw %"class.icu_77::number::Precision", ptr %7, i32 0, i32 2
  %12 = load ptr, ptr %6, align 8, !tbaa !63
  call void @llvm.memcpy.p0.p0.i64(ptr align 8 %11, ptr align 8 %12, i64 16, i1 false), !tbaa.struct !68
  %13 = getelementptr inbounds nuw %"class.icu_77::number::Precision", ptr %7, i32 0, i32 3
  store i32 0, ptr %13, align 8, !tbaa !69
  ret void
}

; Function Attrs: mustprogress uwtable
define void @_ZN6icu_776number9Precision28constructFractionSignificantERKNS0_17FractionPrecisionEii23UNumberRoundingPriorityb(ptr dead_on_unwind noalias writable sret(%"class.icu_77::number::Precision") align 8 %0, ptr noundef nonnull align 8 dereferenceable(28) %1, i32 noundef %2, i32 noundef %3, i32 noundef %4, i1 noundef zeroext %5) #1 align 2 {
  %7 = alloca ptr, align 8
  %8 = alloca i32, align 4
  %9 = alloca i32, align 4
  %10 = alloca i32, align 4
  %11 = alloca i8, align 1
  %12 = alloca %"struct.icu_77::number::Precision::PrecisionUnion::FractionSignificantSettings", align 4
  %13 = alloca %"union.icu_77::number::Precision::PrecisionUnion", align 8
  %14 = alloca i32, align 4
  store ptr %1, ptr %7, align 8, !tbaa !73
  store i32 %2, ptr %8, align 4, !tbaa !14
  store i32 %3, ptr %9, align 4, !tbaa !14
  store i32 %4, ptr %10, align 4, !tbaa !71
  %15 = zext i1 %5 to i8
  store i8 %15, ptr %11, align 1, !tbaa !72
  call void @llvm.lifetime.start.p0(i64 16, ptr %12) #13
  %16 = load ptr, ptr %7, align 8, !tbaa !73
  %17 = getelementptr inbounds nuw %"class.icu_77::number::Precision", ptr %16, i32 0, i32 2
  call void @llvm.memcpy.p0.p0.i64(ptr align 4 %12, ptr align 8 %17, i64 16, i1 false), !tbaa.struct !70
  %18 = load i32, ptr %8, align 4, !tbaa !14
  %19 = trunc i32 %18 to i16
  %20 = getelementptr inbounds nuw %"struct.icu_77::number::Precision::PrecisionUnion::FractionSignificantSettings", ptr %12, i32 0, i32 2
  store i16 %19, ptr %20, align 4, !tbaa !59
  %21 = load i32, ptr %9, align 4, !tbaa !14
  %22 = trunc i32 %21 to i16
  %23 = getelementptr inbounds nuw %"struct.icu_77::number::Precision::PrecisionUnion::FractionSignificantSettings", ptr %12, i32 0, i32 3
  store i16 %22, ptr %23, align 2, !tbaa !60
  %24 = load i32, ptr %10, align 4, !tbaa !71
  %25 = getelementptr inbounds nuw %"struct.icu_77::number::Precision::PrecisionUnion::FractionSignificantSettings", ptr %12, i32 0, i32 4
  store i32 %24, ptr %25, align 4, !tbaa !61
  %26 = load i8, ptr %11, align 1, !tbaa !72, !range !87, !noundef !88
  %27 = trunc i8 %26 to i1
  %28 = getelementptr inbounds nuw %"struct.icu_77::number::Precision::PrecisionUnion::FractionSignificantSettings", ptr %12, i32 0, i32 5
  %29 = zext i1 %27 to i8
  store i8 %29, ptr %28, align 4, !tbaa !62
  call void @llvm.lifetime.start.p0(i64 16, ptr %13) #13
  call void @llvm.memset.p0.i64(ptr align 8 %13, i8 0, i64 16, i1 false)
  call void @llvm.memcpy.p0.p0.i64(ptr align 8 %13, ptr align 4 %12, i64 16, i1 false), !tbaa.struct !70
  call void @llvm.lifetime.start.p0(i64 4, ptr %14) #13
  store i32 4, ptr %14, align 4, !tbaa !52
  call void @_ZN6icu_776number9PrecisionC2ERKNS1_13PrecisionTypeERKNS1_14PrecisionUnionE(ptr noundef nonnull align 8 dereferenceable(28) %0, ptr noundef nonnull align 4 dereferenceable(4) %14, ptr noundef nonnull align 8 dereferenceable(16) %13)
  call void @llvm.lifetime.end.p0(i64 4, ptr %14) #13
  call void @llvm.lifetime.end.p0(i64 16, ptr %13) #13
  call void @llvm.lifetime.end.p0(i64 16, ptr %12) #13
  ret void
}