; Function Attrs: mustprogress nofree norecurse nosync nounwind willreturn memory(argmem: readwrite) uwtable
define void @_ZN6icu_776number9Precision28constructFractionSignificantERKNS0_17FractionPrecisionEii23UNumberRoundingPriorityb(ptr dead_on_unwind noalias writable writeonly sret(%"class.icu_77::number::Precision") align 8 captures(none) initializes((0, 4), (8, 28)) %0, ptr noundef nonnull readonly align 8 captures(none) dereferenceable(28) %1, i32 noundef %2, i32 noundef %3, i32 noundef %4, i1 noundef zeroext %5) local_unnamed_addr #15 align 2 {
  %7 = zext i1 %5 to i8
  %8 = getelementptr inbounds nuw i8, ptr %1, i64 8
  %9 = load i32, ptr %8, align 8
  %.sroa.8.0..sroa_idx = getelementptr inbounds nuw i8, ptr %1, i64 21
  %.sroa.9.0..sroa_idx = getelementptr inbounds nuw i8, ptr %0, i64 21
  tail call void @llvm.memcpy.p0.p0.i64(ptr noundef nonnull align 1 dereferenceable(3) %.sroa.9.0..sroa_idx, ptr noundef nonnull align 1 dereferenceable(3) %.sroa.8.0..sroa_idx, i64 3, i1 false)
  %10 = trunc i32 %2 to i16
  %11 = trunc i32 %3 to i16
  store i32 4, ptr %0, align 8, !tbaa !27
  %12 = getelementptr inbounds nuw i8, ptr %0, i64 8
  store i32 %9, ptr %12, align 8
  %.sroa.5.0..sroa_idx = getelementptr inbounds nuw i8, ptr %0, i64 12
  store i16 %10, ptr %.sroa.5.0..sroa_idx, align 4
  %.sroa.6.0..sroa_idx = getelementptr inbounds nuw i8, ptr %0, i64 14
  store i16 %11, ptr %.sroa.6.0..sroa_idx, align 2
  %.sroa.7.0..sroa_idx = getelementptr inbounds nuw i8, ptr %0, i64 16
  store i32 %4, ptr %.sroa.7.0..sroa_idx, align 8
  %.sroa.814.0..sroa_idx = getelementptr inbounds nuw i8, ptr %0, i64 20
  store i8 %7, ptr %.sroa.814.0..sroa_idx, align 4
  %13 = getelementptr inbounds nuw i8, ptr %0, i64 24
  store i32 0, ptr %13, align 8, !tbaa !31
  ret void
}